; Function Attrs: nounwind uwtable
define ptr @l___private_Lean_Meta_Tactic_Grind_EMatchTheorem_0__Lean_Meta_Grind_collectGroundPattern_x3f_visit_x3f___lambda__1___boxed(ptr noundef %0, ptr noundef %1, ptr noundef %2, ptr noundef %3, ptr noundef %4, ptr noundef %5, ptr noundef %6, ptr noundef %7, ptr noundef %8, ptr noundef %9) local_unnamed_addr #1 {
  %11 = tail call ptr @l___private_Lean_Meta_Tactic_Grind_EMatchTheorem_0__Lean_Meta_Grind_collectGroundPattern_x3f_visit_x3f(ptr noundef %0, ptr noundef readonly %2, ptr noundef readnone %3, ptr noundef %4, ptr noundef %5, ptr noundef %6, ptr noundef %7, ptr noundef %8, ptr noundef %9)
  %12 = ptrtoint ptr %3 to i64
  %13 = and i64 %12, 1
  %.not = icmp eq i64 %13, 0
  br i1 %.not, label %14, label %lean_dec.exit15

14:                                               ; preds = %10
  %15 = load i32, ptr %3, align 4, !tbaa !4
  %16 = icmp sgt i32 %15, 1
  br i1 %16, label %17, label %19, !prof !11

17:                                               ; preds = %14
  %18 = add nsw i32 %15, -1
  store i32 %18, ptr %3, align 4, !tbaa !4
  br label %lean_dec.exit15

19:                                               ; preds = %14
  %.not.i = icmp eq i32 %15, 0
  br i1 %.not.i, label %lean_dec.exit15, label %20

20:                                               ; preds = %19
  tail call void @lean_dec_ref_cold(ptr noundef nonnull %3) #9
  br label %lean_dec.exit15

lean_dec.exit15:                                  ; preds = %20, %19, %17, %10
  %21 = ptrtoint ptr %2 to i64
  %22 = and i64 %21, 1
  %.not20 = icmp eq i64 %22, 0
  br i1 %.not20, label %23, label %lean_dec.exit14

23:                                               ; preds = %lean_dec.exit15
  %24 = load i32, ptr %2, align 4, !tbaa !4
  %25 = icmp sgt i32 %24, 1
  br i1 %25, label %26, label %28, !prof !11

26:                                               ; preds = %23
  %27 = add nsw i32 %24, -1
  store i32 %27, ptr %2, align 4, !tbaa !4
  br label %lean_dec.exit14

28:                                               ; preds = %23
  %.not.i16 = icmp eq i32 %24, 0
  br i1 %.not.i16, label %lean_dec.exit14, label %29

29:                                               ; preds = %28
  tail call void @lean_dec_ref_cold(ptr noundef nonnull %2) #9
  br label %lean_dec.exit14

lean_dec.exit14:                                  ; preds = %29, %28, %26, %lean_dec.exit15
  %30 = ptrtoint ptr %1 to i64
  %31 = and i64 %30, 1
  %.not21 = icmp eq i64 %31, 0
  br i1 %.not21, label %32, label %lean_dec.exit

32:                                               ; preds = %lean_dec.exit14
  %33 = load i32, ptr %1, align 4, !tbaa !4
  %34 = icmp sgt i32 %33, 1
  br i1 %34, label %35, label %37, !prof !11

35:                                               ; preds = %32
  %36 = add nsw i32 %33, -1
  store i32 %36, ptr %1, align 4, !tbaa !4
  br label %lean_dec.exit

37:                                               ; preds = %32
  %.not.i18 = icmp eq i32 %33, 0
  br i1 %.not.i18, label %lean_dec.exit, label %38

38:                                               ; preds = %37
  tail call void @lean_dec_ref_cold(ptr noundef nonnull %1) #9
  br label %lean_dec.exit

lean_dec.exit:                                    ; preds = %38, %37, %35, %lean_dec.exit14
  ret ptr %11
}